; Function Attrs: mustprogress nofree norecurse nosync nounwind sspstrong willreturn memory(read, inaccessiblemem: none) uwtable
define internal range(i32 0, 32) i32 @qio_channel_websock_source_check(ptr noundef readonly captures(none) %source) #3 {
entry:
  %wioc = getelementptr inbounds nuw i8, ptr %source, i64 96
  %0 = load ptr, ptr %wioc, align 8
  %offset = getelementptr inbounds nuw i8, ptr %0, i64 200
  %1 = load i64, ptr %offset, align 8
  %tobool.not = icmp ne i64 %1, 0
  %spec.select = zext i1 %tobool.not to i32
  %offset2 = getelementptr inbounds nuw i8, ptr %0, i64 160
  %2 = load i64, ptr %offset2, align 8
  %cmp = icmp ult i64 %2, 8192
  %or4 = or disjoint i32 %spec.select, 4
  %cond.1 = select i1 %cmp, i32 %or4, i32 %spec.select
  %io_eof = getelementptr inbounds nuw i8, ptr %0, i64 256
  %3 = load i32, ptr %io_eof, align 8
  %tobool7.not = icmp eq i32 %3, 0
  %or9 = or disjoint i32 %cond.1, 16
  %cond.2 = select i1 %tobool7.not, i32 %cond.1, i32 %or9
  %io_err = getelementptr inbounds nuw i8, ptr %0, i64 248
  %4 = load ptr, ptr %io_err, align 8
  %tobool12.not = icmp eq ptr %4, null
  %or14 = or disjoint i32 %cond.2, 8
  %cond.3 = select i1 %tobool12.not, i32 %cond.2, i32 %or14
  %condition = getelementptr inbounds nuw i8, ptr %source, i64 104
  %5 = load i32, ptr %condition, align 8
  %and = and i32 %cond.3, %5
  ret i32 %and
}